target datalayout = "e-m:e-p270:32:32-p271:32:32-p272:64:64-i64:64-i128:128-f80:128-n8:16:32:64-S128"
target triple = "x86_64-pc-linux-gnu"

; Function Attrs: nounwind uwtable
define i32 @Java_sun_awt_X11_XlibWrapper_XTranslateCoordinates(ptr noundef %0, ptr noundef %1, i64 noundef %2, i64 noundef %3, i64 noundef %4, i64 noundef %5, i64 noundef %6, i64 noundef %7, i64 noundef %8, i64 noundef %9) #0 {
  %11 = alloca ptr, align 8
  %12 = alloca ptr, align 8
  %13 = alloca i64, align 8
  %14 = alloca i64, align 8
  %15 = alloca i64, align 8
  %16 = alloca i64, align 8
  %17 = alloca i64, align 8
  %18 = alloca i64, align 8
  %19 = alloca i64, align 8
  %20 = alloca i64, align 8
  store ptr %0, ptr %11, align 8
  store ptr %1, ptr %12, align 8
  store i64 %2, ptr %13, align 8
  store i64 %3, ptr %14, align 8
  store i64 %4, ptr %15, align 8
  store i64 %5, ptr %16, align 8
  store i64 %6, ptr %17, align 8
  store i64 %7, ptr %18, align 8
  store i64 %8, ptr %19, align 8
  store i64 %9, ptr %20, align 8
  %21 = load i64, ptr %13, align 8
  %22 = inttoptr i64 %21 to ptr
  %23 = load i64, ptr %14, align 8
  %24 = load i64, ptr %15, align 8
  %25 = load i64, ptr %16, align 8
  %26 = trunc i64 %25 to i32
  %27 = load i64, ptr %17, align 8
  %28 = trunc i64 %27 to i32
  %29 = load i64, ptr %18, align 8
  %30 = inttoptr i64 %29 to ptr
  %31 = load i64, ptr %19, align 8
  %32 = inttoptr i64 %31 to ptr
  %33 = load i64, ptr %20, align 8
  %34 = inttoptr i64 %33 to ptr
  %35 = call i32 @XTranslateCoordinates(ptr noundef %22, i64 noundef %23, i64 noundef %24, i32 noundef %26, i32 noundef %28, ptr noundef %30, ptr noundef %32, ptr noundef %34)
  ret i32 %35
}