; Function Attrs: nounwind uwtable
define i32 @Java_sun_awt_X11_XlibWrapper_XTranslateCoordinates(ptr nocapture noundef readnone %0, ptr nocapture noundef readnone %1, i64 noundef %2, i64 noundef %3, i64 noundef %4, i64 noundef %5, i64 noundef %6, i64 noundef %7, i64 noundef %8, i64 noundef %9) local_unnamed_addr #0 {
  %11 = inttoptr i64 %2 to ptr
  %12 = trunc i64 %5 to i32
  %13 = trunc i64 %6 to i32
  %14 = inttoptr i64 %7 to ptr
  %15 = inttoptr i64 %8 to ptr
  %16 = inttoptr i64 %9 to ptr
  %17 = tail call i32 @XTranslateCoordinates(ptr noundef %11, i64 noundef %3, i64 noundef %4, i32 noundef %12, i32 noundef %13, ptr noundef %14, ptr noundef %15, ptr noundef %16) #14
  ret i32 %17
}